target datalayout = "e-m:e-p270:32:32-p271:32:32-p272:64:64-i64:64-i128:128-f80:128-n8:16:32:64-S128"
target triple = "x86_64-pc-linux-gnu"

%struct.diff_queue_struct = type { ptr, i32, i32 }
%struct.obj_order = type { ptr, i32, i32 }

@diff_queued_diff = external global %struct.diff_queue_struct, align 8
@.str.4 = private unnamed_addr constant [27 x i8] c"size_t overflow: %lu * %lu\00", align 1

; Function Attrs: inlinehint nounwind uwtable
define internal i64 @st_mult(i64 noundef %0, i64 noundef %1) #2 {
  %3 = alloca i64, align 8
  %4 = alloca i64, align 8
  store i64 %0, ptr %3, align 8, !tbaa !22
  store i64 %1, ptr %4, align 8, !tbaa !22
  %5 = load i64, ptr %3, align 8, !tbaa !22
  %6 = icmp ne i64 %5, 0
  br i1 %6, label %7, label %15

7:                                                ; preds = %2
  %8 = load i64, ptr %4, align 8, !tbaa !22
  %9 = load i64, ptr %3, align 8, !tbaa !22
  %10 = udiv i64 -1, %9
  %11 = icmp ugt i64 %8, %10
  br i1 %11, label %12, label %15

12:                                               ; preds = %7
  %13 = load i64, ptr %3, align 8, !tbaa !22
  %14 = load i64, ptr %4, align 8, !tbaa !22
  call void (ptr, ...) @die(ptr noundef @.str.4, i64 noundef %13, i64 noundef %14) #9
  unreachable

15:                                               ; preds = %7, %2
  %16 = load i64, ptr %3, align 8, !tbaa !22
  %17 = load i64, ptr %4, align 8, !tbaa !22
  %18 = mul i64 %16, %17
  ret i64 %18
}

; Function Attrs: nounwind uwtable
define dso_local void @diffcore_order(ptr noundef %0) #0 {
  %2 = alloca ptr, align 8
  %3 = alloca ptr, align 8
  %4 = alloca ptr, align 8
  %5 = alloca i32, align 4
  %6 = alloca i32, align 4
  store ptr %0, ptr %2, align 8, !tbaa !4
  call void @llvm.lifetime.start.p0(i64 8, ptr %3) #8
  store ptr @diff_queued_diff, ptr %3, align 8, !tbaa !32
  call void @llvm.lifetime.start.p0(i64 8, ptr %4) #8
  call void @llvm.lifetime.start.p0(i64 4, ptr %5) #8
  %7 = load ptr, ptr %3, align 8, !tbaa !32
  %8 = getelementptr inbounds nuw %struct.diff_queue_struct, ptr %7, i32 0, i32 2
  %9 = load i32, ptr %8, align 4, !tbaa !34
  %10 = icmp ne i32 %9, 0
  br i1 %10, label %12, label %11

11:                                               ; preds = %1
  store i32 1, ptr %6, align 4
  br label %71

12:                                               ; preds = %1
  %13 = load ptr, ptr %3, align 8, !tbaa !32
  %14 = getelementptr inbounds nuw %struct.diff_queue_struct, ptr %13, i32 0, i32 2
  %15 = load i32, ptr %14, align 4, !tbaa !34
  %16 = sext i32 %15 to i64
  %17 = call i64 @st_mult(i64 noundef 16, i64 noundef %16)
  %18 = call ptr @xmalloc(i64 noundef %17)
  store ptr %18, ptr %4, align 8, !tbaa !10
  store i32 0, ptr %5, align 4, !tbaa !12
  br label %19

19:                                               ; preds = %38, %12
  %20 = load i32, ptr %5, align 4, !tbaa !12
  %21 = load ptr, ptr %3, align 8, !tbaa !32
  %22 = getelementptr inbounds nuw %struct.diff_queue_struct, ptr %21, i32 0, i32 2
  %23 = load i32, ptr %22, align 4, !tbaa !34
  %24 = icmp slt i32 %20, %23
  br i1 %24, label %25, label %41

25:                                               ; preds = %19
  %26 = load ptr, ptr %3, align 8, !tbaa !32
  %27 = getelementptr inbounds nuw %struct.diff_queue_struct, ptr %26, i32 0, i32 0
  %28 = load ptr, ptr %27, align 8, !tbaa !37
  %29 = load i32, ptr %5, align 4, !tbaa !12
  %30 = sext i32 %29 to i64
  %31 = getelementptr inbounds ptr, ptr %28, i64 %30
  %32 = load ptr, ptr %31, align 8, !tbaa !38
  %33 = load ptr, ptr %4, align 8, !tbaa !10
  %34 = load i32, ptr %5, align 4, !tbaa !12
  %35 = sext i32 %34 to i64
  %36 = getelementptr inbounds %struct.obj_order, ptr %33, i64 %35
  %37 = getelementptr inbounds nuw %struct.obj_order, ptr %36, i32 0, i32 0
  store ptr %32, ptr %37, align 8, !tbaa !16
  br label %38

38:                                               ; preds = %25
  %39 = load i32, ptr %5, align 4, !tbaa !12
  %40 = add nsw i32 %39, 1
  store i32 %40, ptr %5, align 4, !tbaa !12
  br label %19, !llvm.loop !40

41:                                               ; preds = %19
  %42 = load ptr, ptr %2, align 8, !tbaa !4
  %43 = load ptr, ptr %4, align 8, !tbaa !10
  %44 = load ptr, ptr %3, align 8, !tbaa !32
  %45 = getelementptr inbounds nuw %struct.diff_queue_struct, ptr %44, i32 0, i32 2
  %46 = load i32, ptr %45, align 4, !tbaa !34
  call void @order_objects(ptr noundef %42, ptr noundef @pair_pathtwo, ptr noundef %43, i32 noundef %46)
  store i32 0, ptr %5, align 4, !tbaa !12
  br label %47

47:                                               ; preds = %66, %41
  %48 = load i32, ptr %5, align 4, !tbaa !12
  %49 = load ptr, ptr %3, align 8, !tbaa !32
  %50 = getelementptr inbounds nuw %struct.diff_queue_struct, ptr %49, i32 0, i32 2
  %51 = load i32, ptr %50, align 4, !tbaa !34
  %52 = icmp slt i32 %48, %51
  br i1 %52, label %53, label %69

53:                                               ; preds = %47
  %54 = load ptr, ptr %4, align 8, !tbaa !10
  %55 = load i32, ptr %5, align 4, !tbaa !12
  %56 = sext i32 %55 to i64
  %57 = getelementptr inbounds %struct.obj_order, ptr %54, i64 %56
  %58 = getelementptr inbounds nuw %struct.obj_order, ptr %57, i32 0, i32 0
  %59 = load ptr, ptr %58, align 8, !tbaa !16
  %60 = load ptr, ptr %3, align 8, !tbaa !32
  %61 = getelementptr inbounds nuw %struct.diff_queue_struct, ptr %60, i32 0, i32 0
  %62 = load ptr, ptr %61, align 8, !tbaa !37
  %63 = load i32, ptr %5, align 4, !tbaa !12
  %64 = sext i32 %63 to i64
  %65 = getelementptr inbounds ptr, ptr %62, i64 %64
  store ptr %59, ptr %65, align 8, !tbaa !38
  br label %66

66:                                               ; preds = %53
  %67 = load i32, ptr %5, align 4, !tbaa !12
  %68 = add nsw i32 %67, 1
  store i32 %68, ptr %5, align 4, !tbaa !12
  br label %47, !llvm.loop !41

69:                                               ; preds = %47
  %70 = load ptr, ptr %4, align 8, !tbaa !10
  call void @free(ptr noundef %70) #8
  store i32 1, ptr %6, align 4
  br label %71

71:                                               ; preds = %69, %11
  call void @llvm.lifetime.end.p0(i64 4, ptr %5) #8
  call void @llvm.lifetime.end.p0(i64 8, ptr %4) #8
  call void @llvm.lifetime.end.p0(i64 8, ptr %3) #8
  ret void
}