; Function Attrs: nounwind uwtable
define dso_local void @diffcore_order(ptr noundef %0) local_unnamed_addr #0 {
  %2 = load i32, ptr getelementptr inbounds nuw (i8, ptr @diff_queued_diff, i64 12), align 4, !tbaa !27
  %.not = icmp eq i32 %2, 0
  br i1 %.not, label %22, label %3

3:                                                ; preds = %1
  %4 = sext i32 %2 to i64
  %mul.ov.i = icmp slt i32 %2, 0
  br i1 %mul.ov.i, label %5, label %st_mult.exit

5:                                                ; preds = %3
  tail call void (ptr, ...) @die(ptr noundef nonnull @.str.4, i64 noundef 16, i64 noundef range(i64 -2147483648, 2147483648) %4) #13
  unreachable

st_mult.exit:                                     ; preds = %3
  %6 = shl nuw nsw i64 %4, 4
  %7 = tail call ptr @xmalloc(i64 noundef %6) #12
  %8 = load i32, ptr getelementptr inbounds nuw (i8, ptr @diff_queued_diff, i64 12), align 4, !tbaa !27
  %9 = icmp sgt i32 %8, 0
  br i1 %9, label %.lr.ph, label %._crit_edge

.lr.ph:                                           ; preds = %st_mult.exit
  %10 = load ptr, ptr @diff_queued_diff, align 8, !tbaa !30
  %wide.trip.count = zext nneg i32 %8 to i64
  br label %11

11:                                               ; preds = %.lr.ph, %11
  %indvars.iv = phi i64 [ 0, %.lr.ph ], [ %indvars.iv.next, %11 ]
  %12 = getelementptr inbounds nuw ptr, ptr %10, i64 %indvars.iv
  %13 = load ptr, ptr %12, align 8, !tbaa !31
  %14 = getelementptr inbounds nuw %struct.obj_order, ptr %7, i64 %indvars.iv
  store ptr %13, ptr %14, align 8, !tbaa !22
  %indvars.iv.next = add nuw nsw i64 %indvars.iv, 1
  %exitcond.not = icmp eq i64 %indvars.iv.next, %wide.trip.count
  br i1 %exitcond.not, label %._crit_edge, label %11, !llvm.loop !33

._crit_edge:                                      ; preds = %11, %st_mult.exit
  tail call void @order_objects(ptr noundef %0, ptr noundef nonnull @pair_pathtwo, ptr noundef %7, i32 noundef %8)
  %15 = load i32, ptr getelementptr inbounds nuw (i8, ptr @diff_queued_diff, i64 12), align 4, !tbaa !27
  %16 = icmp sgt i32 %15, 0
  br i1 %16, label %.lr.ph24, label %._crit_edge25

.lr.ph24:                                         ; preds = %._crit_edge
  %17 = load ptr, ptr @diff_queued_diff, align 8, !tbaa !30
  %wide.trip.count30 = zext nneg i32 %15 to i64
  br label %18

18:                                               ; preds = %.lr.ph24, %18
  %indvars.iv27 = phi i64 [ 0, %.lr.ph24 ], [ %indvars.iv.next28, %18 ]
  %19 = getelementptr inbounds nuw %struct.obj_order, ptr %7, i64 %indvars.iv27
  %20 = load ptr, ptr %19, align 8, !tbaa !22
  %21 = getelementptr inbounds nuw ptr, ptr %17, i64 %indvars.iv27
  store ptr %20, ptr %21, align 8, !tbaa !31
  %indvars.iv.next28 = add nuw nsw i64 %indvars.iv27, 1
  %exitcond31.not = icmp eq i64 %indvars.iv.next28, %wide.trip.count30
  br i1 %exitcond31.not, label %._crit_edge25, label %18, !llvm.loop !34

._crit_edge25:                                    ; preds = %18, %._crit_edge
  tail call void @free(ptr noundef %7) #12
  br label %22

22:                                               ; preds = %1, %._crit_edge25
  ret void
}